#include <math.h>
#include <stdio.h>
#include <stdlib.h>
#include <string.h>

int main(){
    char juzi[200];   
    int i,j,m;
    gets(juzi);
    m=strlen(juzi);
    for(i=1;i<m-1;i++){
        if(juzi[i-1]!=' '&&juzi[i]==' '&&juzi[i+1]==' '){
            for(j=i+1;j<m-1;j++){
                juzi[j]=juzi[j+1];
            }
            m=m-1;
            juzi[m]='\0';
            i=i-1;
        }
    }
    printf("%s",juzi);
    return 0;
}


